target datalayout = "e-m:e-p270:32:32-p271:32:32-p272:64:64-i64:64-i128:128-f80:128-n8:16:32:64-S128"
target triple = "x86_64-pc-linux-gnu"

%struct._object = type { %union.anon.41, ptr }
%union.anon.41 = type { i64 }
%struct.anon.42 = type { i32, i32 }

; Function Attrs: alwaysinline nounwind uwtable
define internal i32 @_Py_IsImmortal(ptr noundef %0) #3 {
  %2 = alloca ptr, align 8
  store ptr %0, ptr %2, align 8, !tbaa !9
  %3 = load ptr, ptr %2, align 8, !tbaa !9
  %4 = getelementptr inbounds nuw %struct._object, ptr %3, i32 0, i32 0
  %5 = getelementptr inbounds nuw %struct.anon.42, ptr %4, i32 0, i32 0
  %6 = load i32, ptr %5, align 8, !tbaa !20
  %7 = icmp slt i32 %6, 0
  %8 = zext i1 %7 to i32
  ret i32 %8
}

; Function Attrs: alwaysinline nounwind uwtable
define internal void @Py_DECREF(ptr noundef %0) #3 {
  %2 = alloca ptr, align 8
  store ptr %0, ptr %2, align 8, !tbaa !9
  %3 = load ptr, ptr %2, align 8, !tbaa !9
  %4 = call i32 @_Py_IsImmortal(ptr noundef %3)
  %5 = icmp ne i32 %4, 0
  br i1 %5, label %6, label %7

6:                                                ; preds = %1
  br label %16

7:                                                ; preds = %1
  %8 = load ptr, ptr %2, align 8, !tbaa !9
  %9 = getelementptr inbounds nuw %struct._object, ptr %8, i32 0, i32 0
  %10 = getelementptr inbounds nuw %struct.anon.42, ptr %9, i32 0, i32 0
  %11 = load i32, ptr %10, align 8, !tbaa !20
  %12 = add i32 %11, -1
  store i32 %12, ptr %10, align 8, !tbaa !20
  %13 = icmp eq i32 %12, 0
  br i1 %13, label %14, label %16

14:                                               ; preds = %7
  %15 = load ptr, ptr %2, align 8, !tbaa !9
  call void @_Py_Dealloc(ptr noundef %15)
  br label %16

16:                                               ; preds = %6, %14, %7
  ret void
}

; Function Attrs: nounwind uwtable
define internal ptr @pyrun_file(ptr noundef %0, ptr noundef %1, i32 noundef %2, ptr noundef %3, ptr noundef %4, i32 noundef %5, ptr noundef %6) #0 {
  %8 = alloca ptr, align 8
  %9 = alloca ptr, align 8
  %10 = alloca ptr, align 8
  %11 = alloca i32, align 4
  %12 = alloca ptr, align 8
  %13 = alloca ptr, align 8
  %14 = alloca i32, align 4
  %15 = alloca ptr, align 8
  %16 = alloca ptr, align 8
  %17 = alloca i32, align 4
  %18 = alloca ptr, align 8
  %19 = alloca ptr, align 8
  store ptr %0, ptr %9, align 8, !tbaa !4
  store ptr %1, ptr %10, align 8, !tbaa !9
  store i32 %2, ptr %11, align 4, !tbaa !11
  store ptr %3, ptr %12, align 8, !tbaa !9
  store ptr %4, ptr %13, align 8, !tbaa !9
  store i32 %5, ptr %14, align 4, !tbaa !11
  store ptr %6, ptr %15, align 8, !tbaa !13
  call void @llvm.lifetime.start.p0(i64 8, ptr %16) #10
  %20 = call ptr @_PyArena_New()
  store ptr %20, ptr %16, align 8, !tbaa !23
  %21 = load ptr, ptr %16, align 8, !tbaa !23
  %22 = icmp eq ptr %21, null
  br i1 %22, label %23, label %24

23:                                               ; preds = %7
  store ptr null, ptr %8, align 8
  store i32 1, ptr %17, align 4
  br label %51

24:                                               ; preds = %7
  call void @llvm.lifetime.start.p0(i64 8, ptr %18) #10
  %25 = load ptr, ptr %9, align 8, !tbaa !4
  %26 = load ptr, ptr %10, align 8, !tbaa !9
  %27 = load i32, ptr %11, align 4, !tbaa !11
  %28 = load ptr, ptr %15, align 8, !tbaa !13
  %29 = load ptr, ptr %16, align 8, !tbaa !23
  %30 = call ptr @_PyParser_ASTFromFile(ptr noundef %25, ptr noundef %26, ptr noundef null, i32 noundef %27, ptr noundef null, ptr noundef null, ptr noundef %28, ptr noundef null, ptr noundef %29)
  store ptr %30, ptr %18, align 8, !tbaa !25
  %31 = load i32, ptr %14, align 4, !tbaa !11
  %32 = icmp ne i32 %31, 0
  br i1 %32, label %33, label %36

33:                                               ; preds = %24
  %34 = load ptr, ptr %9, align 8, !tbaa !4
  %35 = call i32 @fclose(ptr noundef %34)
  br label %36

36:                                               ; preds = %33, %24
  call void @llvm.lifetime.start.p0(i64 8, ptr %19) #10
  %37 = load ptr, ptr %18, align 8, !tbaa !25
  %38 = icmp ne ptr %37, null
  br i1 %38, label %39, label %47

39:                                               ; preds = %36
  %40 = load ptr, ptr %18, align 8, !tbaa !25
  %41 = load ptr, ptr %10, align 8, !tbaa !9
  %42 = load ptr, ptr %12, align 8, !tbaa !9
  %43 = load ptr, ptr %13, align 8, !tbaa !9
  %44 = load ptr, ptr %15, align 8, !tbaa !13
  %45 = load ptr, ptr %16, align 8, !tbaa !23
  %46 = call ptr @run_mod(ptr noundef %40, ptr noundef %41, ptr noundef %42, ptr noundef %43, ptr noundef %44, ptr noundef %45, ptr noundef null, i32 noundef 0)
  store ptr %46, ptr %19, align 8, !tbaa !9
  br label %48

47:                                               ; preds = %36
  store ptr null, ptr %19, align 8, !tbaa !9
  br label %48

48:                                               ; preds = %47, %39
  %49 = load ptr, ptr %16, align 8, !tbaa !23
  call void @_PyArena_Free(ptr noundef %49)
  %50 = load ptr, ptr %19, align 8, !tbaa !9
  store ptr %50, ptr %8, align 8
  store i32 1, ptr %17, align 4
  call void @llvm.lifetime.end.p0(i64 8, ptr %19) #10
  call void @llvm.lifetime.end.p0(i64 8, ptr %18) #10
  br label %51

51:                                               ; preds = %48, %23
  call void @llvm.lifetime.end.p0(i64 8, ptr %16) #10
  %52 = load ptr, ptr %8, align 8
  ret ptr %52
}

; Function Attrs: nounwind uwtable
define dso_local ptr @PyRun_FileExFlags(ptr noundef %0, ptr noundef %1, i32 noundef %2, ptr noundef %3, ptr noundef %4, i32 noundef %5, ptr noundef %6) #0 {
  %8 = alloca ptr, align 8
  %9 = alloca ptr, align 8
  %10 = alloca ptr, align 8
  %11 = alloca i32, align 4
  %12 = alloca ptr, align 8
  %13 = alloca ptr, align 8
  %14 = alloca i32, align 4
  %15 = alloca ptr, align 8
  %16 = alloca ptr, align 8
  %17 = alloca i32, align 4
  %18 = alloca ptr, align 8
  store ptr %0, ptr %9, align 8, !tbaa !4
  store ptr %1, ptr %10, align 8, !tbaa !21
  store i32 %2, ptr %11, align 4, !tbaa !11
  store ptr %3, ptr %12, align 8, !tbaa !9
  store ptr %4, ptr %13, align 8, !tbaa !9
  store i32 %5, ptr %14, align 4, !tbaa !11
  store ptr %6, ptr %15, align 8, !tbaa !13
  call void @llvm.lifetime.start.p0(i64 8, ptr %16) #10
  %19 = load ptr, ptr %10, align 8, !tbaa !21
  %20 = call ptr @PyUnicode_DecodeFSDefault(ptr noundef %19)
  store ptr %20, ptr %16, align 8, !tbaa !9
  %21 = load ptr, ptr %16, align 8, !tbaa !9
  %22 = icmp eq ptr %21, null
  br i1 %22, label %23, label %24

23:                                               ; preds = %7
  store ptr null, ptr %8, align 8
  store i32 1, ptr %17, align 4
  br label %35

24:                                               ; preds = %7
  call void @llvm.lifetime.start.p0(i64 8, ptr %18) #10
  %25 = load ptr, ptr %9, align 8, !tbaa !4
  %26 = load ptr, ptr %16, align 8, !tbaa !9
  %27 = load i32, ptr %11, align 4, !tbaa !11
  %28 = load ptr, ptr %12, align 8, !tbaa !9
  %29 = load ptr, ptr %13, align 8, !tbaa !9
  %30 = load i32, ptr %14, align 4, !tbaa !11
  %31 = load ptr, ptr %15, align 8, !tbaa !13
  %32 = call ptr @pyrun_file(ptr noundef %25, ptr noundef %26, i32 noundef %27, ptr noundef %28, ptr noundef %29, i32 noundef %30, ptr noundef %31)
  store ptr %32, ptr %18, align 8, !tbaa !9
  %33 = load ptr, ptr %16, align 8, !tbaa !9
  call void @Py_DECREF(ptr noundef %33)
  %34 = load ptr, ptr %18, align 8, !tbaa !9
  store ptr %34, ptr %8, align 8
  store i32 1, ptr %17, align 4
  call void @llvm.lifetime.end.p0(i64 8, ptr %18) #10
  br label %35

35:                                               ; preds = %24, %23
  call void @llvm.lifetime.end.p0(i64 8, ptr %16) #10
  %36 = load ptr, ptr %8, align 8
  ret ptr %36
}