; Function Attrs: nounwind uwtable
define dso_local ptr @PyRun_FileExFlags(ptr noundef %0, ptr noundef %1, i32 noundef %2, ptr noundef %3, ptr noundef %4, i32 noundef %5, ptr noundef %6) local_unnamed_addr #0 {
  %8 = tail call ptr @PyUnicode_DecodeFSDefault(ptr noundef %1) #8
  %9 = icmp eq ptr %8, null
  br i1 %9, label %Py_DECREF.exit, label %10

10:                                               ; preds = %7
  %11 = tail call ptr @_PyArena_New() #8
  %12 = icmp eq ptr %11, null
  br i1 %12, label %pyrun_file.exit, label %13

13:                                               ; preds = %10
  %14 = tail call ptr @_PyParser_ASTFromFile(ptr noundef %0, ptr noundef nonnull %8, ptr noundef null, i32 noundef %2, ptr noundef null, ptr noundef null, ptr noundef %6, ptr noundef null, ptr noundef nonnull %11) #8
  %.not.i12 = icmp eq i32 %5, 0
  br i1 %.not.i12, label %17, label %15

15:                                               ; preds = %13
  %16 = tail call i32 @fclose(ptr noundef %0)
  br label %17

17:                                               ; preds = %15, %13
  %.not20.i = icmp eq ptr %14, null
  br i1 %.not20.i, label %20, label %18

18:                                               ; preds = %17
  %19 = tail call fastcc ptr @run_mod(ptr noundef nonnull %14, ptr noundef nonnull %8, ptr noundef %3, ptr noundef %4, ptr noundef %6, ptr noundef %11, ptr noundef null, i32 noundef 0)
  br label %20

20:                                               ; preds = %18, %17
  %.0.i = phi ptr [ %19, %18 ], [ null, %17 ]
  tail call void @_PyArena_Free(ptr noundef nonnull %11) #8
  br label %pyrun_file.exit

pyrun_file.exit:                                  ; preds = %10, %20
  %.017.i = phi ptr [ %.0.i, %20 ], [ null, %10 ]
  %21 = load i32, ptr %8, align 8, !tbaa !9
  %.not.i = icmp sgt i32 %21, -1
  br i1 %.not.i, label %22, label %Py_DECREF.exit

22:                                               ; preds = %pyrun_file.exit
  %23 = add nsw i32 %21, -1
  store i32 %23, ptr %8, align 8, !tbaa !9
  %24 = icmp eq i32 %23, 0
  br i1 %24, label %25, label %Py_DECREF.exit

25:                                               ; preds = %22
  tail call void @_Py_Dealloc(ptr noundef nonnull %8) #8
  br label %Py_DECREF.exit

Py_DECREF.exit:                                   ; preds = %25, %22, %pyrun_file.exit, %7
  %.0 = phi ptr [ null, %7 ], [ %.017.i, %pyrun_file.exit ], [ %.017.i, %22 ], [ %.017.i, %25 ]
  ret ptr %.0
}